target datalayout = "e-m:e-p270:32:32-p271:32:32-p272:64:64-i64:64-i128:128-f80:128-n8:16:32:64-S128"
target triple = "x86_64-unknown-linux-gnu"

%struct._DBusDisplayConsole = type { %struct._GDBusObjectSkeleton, %struct.DisplayChangeListener, ptr, ptr, ptr, ptr, ptr, ptr, ptr, i32, i32, i32, %struct.Notifier }
%struct._GDBusObjectSkeleton = type { %struct._GObject, ptr }
%struct._GObject = type { %struct._GTypeInstance, i32, ptr }
%struct._GTypeInstance = type { ptr }
%struct.DisplayChangeListener = type { i64, ptr, ptr, ptr, %struct.anon }
%struct.anon = type { ptr, ptr }
%struct.Notifier = type { ptr, %struct.anon.0 }
%struct.anon.0 = type { ptr, ptr }

@.str.54 = private unnamed_addr constant [12 x i8] c"is-absolute\00", align 1

; Function Attrs: nounwind sspstrong uwtable
define internal void @dbus_mouse_update_is_absolute(ptr noundef %ddc) #0 {
entry:
  %ddc.addr = alloca ptr, align 8
  store ptr %ddc, ptr %ddc.addr, align 8
  %0 = load ptr, ptr %ddc.addr, align 8
  %iface_mouse = getelementptr inbounds %struct._DBusDisplayConsole, ptr %0, i32 0, i32 7
  %1 = load ptr, ptr %iface_mouse, align 8
  %2 = load ptr, ptr %ddc.addr, align 8
  %dcl = getelementptr inbounds %struct._DBusDisplayConsole, ptr %2, i32 0, i32 1
  %con = getelementptr inbounds %struct.DisplayChangeListener, ptr %dcl, i32 0, i32 3
  %3 = load ptr, ptr %con, align 8
  %call = call zeroext i1 @qemu_input_is_absolute(ptr noundef %3)
  %conv = zext i1 %call to i32
  call void (ptr, ptr, ...) @g_object_set(ptr noundef %1, ptr noundef @.str.54, i32 noundef %conv, ptr noundef null)
  ret void
}

; Function Attrs: nounwind sspstrong uwtable
define internal void @dbus_mouse_mode_change(ptr noundef %notify, ptr noundef %data) #0 {
entry:
  %notify.addr = alloca ptr, align 8
  %data.addr = alloca ptr, align 8
  %ddc = alloca ptr, align 8
  %__mptr = alloca ptr, align 8
  %tmp = alloca ptr, align 8
  store ptr %notify, ptr %notify.addr, align 8
  store ptr %data, ptr %data.addr, align 8
  %0 = load ptr, ptr %notify.addr, align 8
  store ptr %0, ptr %__mptr, align 8
  %1 = load ptr, ptr %__mptr, align 8
  %add.ptr = getelementptr i8, ptr %1, i64 -152
  store ptr %add.ptr, ptr %tmp, align 8
  %2 = load ptr, ptr %tmp, align 8
  store ptr %2, ptr %ddc, align 8
  %3 = load ptr, ptr %ddc, align 8
  call void @dbus_mouse_update_is_absolute(ptr noundef %3)
  ret void
}