; Function Attrs: nounwind sspstrong uwtable
define internal void @dbus_mouse_mode_change(ptr noundef readonly captures(none) %notify, ptr readnone captures(none) %data) #0 {
entry:
  %0 = getelementptr i8, ptr %notify, i64 -96
  %add.ptr.val = load ptr, ptr %0, align 8
  %1 = getelementptr i8, ptr %notify, i64 -32
  %add.ptr.val1 = load ptr, ptr %1, align 8
  %call.i = tail call zeroext i1 @qemu_input_is_absolute(ptr noundef %add.ptr.val) #9
  %conv.i = zext i1 %call.i to i32
  tail call void (ptr, ptr, ...) @g_object_set(ptr noundef %add.ptr.val1, ptr noundef nonnull @.str.54, i32 noundef %conv.i, ptr noundef null) #9
  ret void
}